target datalayout = "e-m:e-p270:32:32-p271:32:32-p272:64:64-i64:64-i128:128-f80:128-n8:16:32:64-S128"
target triple = "x86_64-pc-linux-gnu"

%struct.JNINativeInterface_ = type { ptr, ptr, ptr, ptr, ptr, ptr, ptr, ptr, ptr, ptr, ptr, ptr, ptr, ptr, ptr, ptr, ptr, ptr, ptr, ptr, ptr, ptr, ptr, ptr, ptr, ptr, ptr, ptr, ptr, ptr, ptr, ptr, ptr, ptr, ptr, ptr, ptr, ptr, ptr, ptr, ptr, ptr, ptr, ptr, ptr, ptr, ptr, ptr, ptr, ptr, ptr, ptr, ptr, ptr, ptr, ptr, ptr, ptr, ptr, ptr, ptr, ptr, ptr, ptr, ptr, ptr, ptr, ptr, ptr, ptr, ptr, ptr, ptr, ptr, ptr, ptr, ptr, ptr, ptr, ptr, ptr, ptr, ptr, ptr, ptr, ptr, ptr, ptr, ptr, ptr, ptr, ptr, ptr, ptr, ptr, ptr, ptr, ptr, ptr, ptr, ptr, ptr, ptr, ptr, ptr, ptr, ptr, ptr, ptr, ptr, ptr, ptr, ptr, ptr, ptr, ptr, ptr, ptr, ptr, ptr, ptr, ptr, ptr, ptr, ptr, ptr, ptr, ptr, ptr, ptr, ptr, ptr, ptr, ptr, ptr, ptr, ptr, ptr, ptr, ptr, ptr, ptr, ptr, ptr, ptr, ptr, ptr, ptr, ptr, ptr, ptr, ptr, ptr, ptr, ptr, ptr, ptr, ptr, ptr, ptr, ptr, ptr, ptr, ptr, ptr, ptr, ptr, ptr, ptr, ptr, ptr, ptr, ptr, ptr, ptr, ptr, ptr, ptr, ptr, ptr, ptr, ptr, ptr, ptr, ptr, ptr, ptr, ptr, ptr, ptr, ptr, ptr, ptr, ptr, ptr, ptr, ptr, ptr, ptr, ptr, ptr, ptr, ptr, ptr, ptr, ptr, ptr, ptr, ptr, ptr, ptr, ptr, ptr, ptr, ptr, ptr, ptr, ptr, ptr, ptr, ptr, ptr, ptr, ptr, ptr, ptr, ptr, ptr, ptr, ptr, ptr, ptr, ptr, ptr, ptr }

@.str.1 = private unnamed_addr constant [28 x i8] c"java/awt/color/CMMException\00", align 1
@.str.4 = private unnamed_addr constant [27 x i8] c"Cannot get color transform\00", align 1
@.str.11 = private unnamed_addr constant [37 x i8] c"LCMS_colorConvert: transform == NULL\00", align 1
@.str.12 = private unnamed_addr constant [1 x i8] zeroinitializer, align 1

; Function Attrs: nounwind uwtable
define internal void @releaseILData(ptr noundef %0, ptr noundef %1, i32 noundef %2, ptr noundef %3, i32 noundef %4) #0 {
  %6 = alloca ptr, align 8
  %7 = alloca ptr, align 8
  %8 = alloca i32, align 4
  %9 = alloca ptr, align 8
  %10 = alloca i32, align 4
  store ptr %0, ptr %6, align 8
  store ptr %1, ptr %7, align 8
  store i32 %2, ptr %8, align 4
  store ptr %3, ptr %9, align 8
  store i32 %4, ptr %10, align 4
  %11 = load i32, ptr %8, align 4
  switch i32 %11, label %39 [
    i32 0, label %12
    i32 1, label %21
    i32 2, label %30
  ]

12:                                               ; preds = %5
  %13 = load ptr, ptr %6, align 8
  %14 = load ptr, ptr %13, align 8
  %15 = getelementptr inbounds %struct.JNINativeInterface_, ptr %14, i32 0, i32 192
  %16 = load ptr, ptr %15, align 8
  %17 = load ptr, ptr %6, align 8
  %18 = load ptr, ptr %9, align 8
  %19 = load ptr, ptr %7, align 8
  %20 = load i32, ptr %10, align 4
  call void %16(ptr noundef %17, ptr noundef %18, ptr noundef %19, i32 noundef %20)
  br label %39

21:                                               ; preds = %5
  %22 = load ptr, ptr %6, align 8
  %23 = load ptr, ptr %22, align 8
  %24 = getelementptr inbounds %struct.JNINativeInterface_, ptr %23, i32 0, i32 194
  %25 = load ptr, ptr %24, align 8
  %26 = load ptr, ptr %6, align 8
  %27 = load ptr, ptr %9, align 8
  %28 = load ptr, ptr %7, align 8
  %29 = load i32, ptr %10, align 4
  call void %25(ptr noundef %26, ptr noundef %27, ptr noundef %28, i32 noundef %29)
  br label %39

30:                                               ; preds = %5
  %31 = load ptr, ptr %6, align 8
  %32 = load ptr, ptr %31, align 8
  %33 = getelementptr inbounds %struct.JNINativeInterface_, ptr %32, i32 0, i32 195
  %34 = load ptr, ptr %33, align 8
  %35 = load ptr, ptr %6, align 8
  %36 = load ptr, ptr %9, align 8
  %37 = load ptr, ptr %7, align 8
  %38 = load i32, ptr %10, align 4
  call void %34(ptr noundef %35, ptr noundef %36, ptr noundef %37, i32 noundef %38)
  br label %39

39:                                               ; preds = %30, %21, %12, %5
  ret void
}

; Function Attrs: nounwind uwtable
define internal ptr @getILData(ptr noundef %0, ptr noundef %1, i32 noundef %2) #0 {
  %4 = alloca ptr, align 8
  %5 = alloca ptr, align 8
  %6 = alloca ptr, align 8
  %7 = alloca i32, align 4
  store ptr %0, ptr %5, align 8
  store ptr %1, ptr %6, align 8
  store i32 %2, ptr %7, align 4
  %8 = load i32, ptr %7, align 4
  switch i32 %8, label %33 [
    i32 0, label %9
    i32 1, label %17
    i32 2, label %25
  ]

9:                                                ; preds = %3
  %10 = load ptr, ptr %5, align 8
  %11 = load ptr, ptr %10, align 8
  %12 = getelementptr inbounds %struct.JNINativeInterface_, ptr %11, i32 0, i32 184
  %13 = load ptr, ptr %12, align 8
  %14 = load ptr, ptr %5, align 8
  %15 = load ptr, ptr %6, align 8
  %16 = call ptr %13(ptr noundef %14, ptr noundef %15, ptr noundef null)
  store ptr %16, ptr %4, align 8
  br label %34

17:                                               ; preds = %3
  %18 = load ptr, ptr %5, align 8
  %19 = load ptr, ptr %18, align 8
  %20 = getelementptr inbounds %struct.JNINativeInterface_, ptr %19, i32 0, i32 186
  %21 = load ptr, ptr %20, align 8
  %22 = load ptr, ptr %5, align 8
  %23 = load ptr, ptr %6, align 8
  %24 = call ptr %21(ptr noundef %22, ptr noundef %23, ptr noundef null)
  store ptr %24, ptr %4, align 8
  br label %34

25:                                               ; preds = %3
  %26 = load ptr, ptr %5, align 8
  %27 = load ptr, ptr %26, align 8
  %28 = getelementptr inbounds %struct.JNINativeInterface_, ptr %27, i32 0, i32 187
  %29 = load ptr, ptr %28, align 8
  %30 = load ptr, ptr %5, align 8
  %31 = load ptr, ptr %6, align 8
  %32 = call ptr %29(ptr noundef %30, ptr noundef %31, ptr noundef null)
  store ptr %32, ptr %4, align 8
  br label %34

33:                                               ; preds = %3
  store ptr null, ptr %4, align 8
  br label %34

34:                                               ; preds = %33, %25, %17, %9
  %35 = load ptr, ptr %4, align 8
  ret ptr %35
}

; Function Attrs: nounwind uwtable
define void @Java_sun_java2d_cmm_lcms_LCMS_colorConvert(ptr noundef %0, ptr noundef %1, i64 noundef %2, i32 noundef %3, i32 noundef %4, i32 noundef %5, i32 noundef %6, i32 noundef %7, i32 noundef %8, ptr noundef %9, ptr noundef %10, i32 noundef %11, i32 noundef %12) #0 {
  %14 = alloca ptr, align 8
  %15 = alloca ptr, align 8
  %16 = alloca i64, align 8
  %17 = alloca i32, align 4
  %18 = alloca i32, align 4
  %19 = alloca i32, align 4
  %20 = alloca i32, align 4
  %21 = alloca i32, align 4
  %22 = alloca i32, align 4
  %23 = alloca ptr, align 8
  %24 = alloca ptr, align 8
  %25 = alloca i32, align 4
  %26 = alloca i32, align 4
  %27 = alloca ptr, align 8
  %28 = alloca ptr, align 8
  %29 = alloca ptr, align 8
  %30 = alloca ptr, align 8
  %31 = alloca ptr, align 8
  store ptr %0, ptr %14, align 8
  store ptr %1, ptr %15, align 8
  store i64 %2, ptr %16, align 8
  store i32 %3, ptr %17, align 4
  store i32 %4, ptr %18, align 4
  store i32 %5, ptr %19, align 4
  store i32 %6, ptr %20, align 4
  store i32 %7, ptr %21, align 4
  store i32 %8, ptr %22, align 4
  store ptr %9, ptr %23, align 8
  store ptr %10, ptr %24, align 8
  store i32 %11, ptr %25, align 4
  store i32 %12, ptr %26, align 4
  %32 = load i64, ptr %16, align 8
  %33 = inttoptr i64 %32 to ptr
  store ptr %33, ptr %27, align 8
  %34 = load ptr, ptr %27, align 8
  %35 = icmp eq ptr %34, null
  br i1 %35, label %36, label %38

36:                                               ; preds = %13
  call void (i32, i8, ptr, ...) @J2dTraceImpl(i32 noundef 1, i8 noundef zeroext 1, ptr noundef @.str.11)
  %37 = load ptr, ptr %14, align 8
  call void @JNU_ThrowByName(ptr noundef %37, ptr noundef @.str.1, ptr noundef @.str.4)
  br label %82

38:                                               ; preds = %13
  %39 = load ptr, ptr %14, align 8
  %40 = load ptr, ptr %23, align 8
  %41 = load i32, ptr %25, align 4
  %42 = call ptr @getILData(ptr noundef %39, ptr noundef %40, i32 noundef %41)
  store ptr %42, ptr %28, align 8
  %43 = load ptr, ptr %28, align 8
  %44 = icmp eq ptr %43, null
  br i1 %44, label %45, label %46

45:                                               ; preds = %38
  call void (i32, i8, ptr, ...) @J2dTraceImpl(i32 noundef 1, i8 noundef zeroext 1, ptr noundef @.str.12)
  br label %82

46:                                               ; preds = %38
  %47 = load ptr, ptr %14, align 8
  %48 = load ptr, ptr %24, align 8
  %49 = load i32, ptr %26, align 4
  %50 = call ptr @getILData(ptr noundef %47, ptr noundef %48, i32 noundef %49)
  store ptr %50, ptr %29, align 8
  %51 = load ptr, ptr %29, align 8
  %52 = icmp eq ptr %51, null
  br i1 %52, label %53, label %58

53:                                               ; preds = %46
  %54 = load ptr, ptr %14, align 8
  %55 = load ptr, ptr %28, align 8
  %56 = load i32, ptr %25, align 4
  %57 = load ptr, ptr %23, align 8
  call void @releaseILData(ptr noundef %54, ptr noundef %55, i32 noundef %56, ptr noundef %57, i32 noundef 2)
  br label %82

58:                                               ; preds = %46
  %59 = load ptr, ptr %28, align 8
  %60 = load i32, ptr %19, align 4
  %61 = sext i32 %60 to i64
  %62 = getelementptr inbounds i8, ptr %59, i64 %61
  store ptr %62, ptr %30, align 8
  %63 = load ptr, ptr %29, align 8
  %64 = load i32, ptr %21, align 4
  %65 = sext i32 %64 to i64
  %66 = getelementptr inbounds i8, ptr %63, i64 %65
  store ptr %66, ptr %31, align 8
  %67 = load ptr, ptr %27, align 8
  %68 = load ptr, ptr %30, align 8
  %69 = load ptr, ptr %31, align 8
  %70 = load i32, ptr %17, align 4
  %71 = load i32, ptr %18, align 4
  %72 = load i32, ptr %20, align 4
  %73 = load i32, ptr %22, align 4
  call void @cmsDoTransformLineStride(ptr noundef %67, ptr noundef %68, ptr noundef %69, i32 noundef %70, i32 noundef %71, i32 noundef %72, i32 noundef %73, i32 noundef 0, i32 noundef 0)
  %74 = load ptr, ptr %14, align 8
  %75 = load ptr, ptr %28, align 8
  %76 = load i32, ptr %25, align 4
  %77 = load ptr, ptr %23, align 8
  call void @releaseILData(ptr noundef %74, ptr noundef %75, i32 noundef %76, ptr noundef %77, i32 noundef 2)
  %78 = load ptr, ptr %14, align 8
  %79 = load ptr, ptr %29, align 8
  %80 = load i32, ptr %26, align 4
  %81 = load ptr, ptr %24, align 8
  call void @releaseILData(ptr noundef %78, ptr noundef %79, i32 noundef %80, ptr noundef %81, i32 noundef 0)
  br label %82

82:                                               ; preds = %58, %53, %45, %36
  ret void
}