; Function Attrs: nounwind uwtable
define void @Java_sun_java2d_cmm_lcms_LCMS_colorConvert(ptr noundef %0, ptr nocapture noundef readnone %1, i64 noundef %2, i32 noundef %3, i32 noundef %4, i32 noundef %5, i32 noundef %6, i32 noundef %7, i32 noundef %8, ptr noundef %9, ptr noundef %10, i32 noundef %11, i32 noundef %12) local_unnamed_addr #0 {
  %14 = inttoptr i64 %2 to ptr
  %15 = icmp eq i64 %2, 0
  br i1 %15, label %16, label %17

16:                                               ; preds = %13
  tail call void (i32, i8, ptr, ...) @J2dTraceImpl(i32 noundef 1, i8 noundef zeroext 1, ptr noundef nonnull @.str.11) #8
  tail call void @JNU_ThrowByName(ptr noundef %0, ptr noundef nonnull @.str.1, ptr noundef nonnull @.str.4) #8
  br label %releaseILData.exit

17:                                               ; preds = %13
  %18 = icmp ult i32 %11, 3
  br i1 %18, label %switch.lookup, label %getILData.exit.thread

switch.lookup:                                    ; preds = %17
  %19 = zext nneg i32 %11 to i64
  %switch.gep = getelementptr inbounds [3 x i64], ptr @switch.table.Java_sun_java2d_cmm_lcms_LCMS_colorConvert.1, i64 0, i64 %19
  %switch.load = load i64, ptr %switch.gep, align 8
  %20 = load ptr, ptr %0, align 8
  %21 = getelementptr inbounds i8, ptr %20, i64 %switch.load
  %22 = load ptr, ptr %21, align 8
  %23 = tail call ptr %22(ptr noundef nonnull %0, ptr noundef %9, ptr noundef null) #8
  %24 = icmp eq ptr %23, null
  br i1 %24, label %getILData.exit.thread, label %25

getILData.exit.thread:                            ; preds = %17, %switch.lookup
  tail call void (i32, i8, ptr, ...) @J2dTraceImpl(i32 noundef 1, i8 noundef zeroext 1, ptr noundef nonnull @.str.12) #8
  br label %releaseILData.exit

25:                                               ; preds = %switch.lookup
  %26 = icmp ult i32 %12, 3
  br i1 %26, label %switch.lookup50, label %switch.lookup53

switch.lookup50:                                  ; preds = %25
  %27 = zext nneg i32 %12 to i64
  %switch.gep51 = getelementptr inbounds [3 x i64], ptr @switch.table.Java_sun_java2d_cmm_lcms_LCMS_colorConvert.1, i64 0, i64 %27
  %switch.load52 = load i64, ptr %switch.gep51, align 8
  %28 = load ptr, ptr %0, align 8
  %29 = getelementptr inbounds i8, ptr %28, i64 %switch.load52
  %30 = load ptr, ptr %29, align 8
  %31 = tail call ptr %30(ptr noundef nonnull %0, ptr noundef %10, ptr noundef null) #8
  %32 = icmp eq ptr %31, null
  br i1 %32, label %switch.lookup53, label %switch.lookup56

switch.lookup53:                                  ; preds = %switch.lookup50, %25
  %33 = zext nneg i32 %11 to i64
  %switch.gep54 = getelementptr inbounds [3 x i64], ptr @switch.table.Java_sun_java2d_cmm_lcms_LCMS_colorConvert.4, i64 0, i64 %33
  %switch.load55 = load i64, ptr %switch.gep54, align 8
  %34 = load ptr, ptr %0, align 8
  %35 = getelementptr inbounds i8, ptr %34, i64 %switch.load55
  %36 = load ptr, ptr %35, align 8
  tail call void %36(ptr noundef nonnull %0, ptr noundef %9, ptr noundef nonnull %23, i32 noundef 2) #8
  br label %releaseILData.exit

switch.lookup56:                                  ; preds = %switch.lookup50
  %37 = sext i32 %5 to i64
  %38 = getelementptr inbounds i8, ptr %23, i64 %37
  %39 = sext i32 %7 to i64
  %40 = getelementptr inbounds i8, ptr %31, i64 %39
  tail call void @cmsDoTransformLineStride(ptr noundef nonnull %14, ptr noundef nonnull %38, ptr noundef nonnull %40, i32 noundef %3, i32 noundef %4, i32 noundef %6, i32 noundef %8, i32 noundef 0, i32 noundef 0) #8
  %41 = zext nneg i32 %11 to i64
  %switch.gep57 = getelementptr inbounds [3 x i64], ptr @switch.table.Java_sun_java2d_cmm_lcms_LCMS_colorConvert.4, i64 0, i64 %41
  %switch.load58 = load i64, ptr %switch.gep57, align 8
  %42 = load ptr, ptr %0, align 8
  %43 = getelementptr inbounds i8, ptr %42, i64 %switch.load58
  %44 = load ptr, ptr %43, align 8
  tail call void %44(ptr noundef nonnull %0, ptr noundef %9, ptr noundef nonnull %23, i32 noundef 2) #8
  %45 = zext nneg i32 %12 to i64
  %switch.gep60 = getelementptr inbounds [3 x i64], ptr @switch.table.Java_sun_java2d_cmm_lcms_LCMS_colorConvert.4, i64 0, i64 %45
  %switch.load61 = load i64, ptr %switch.gep60, align 8
  %46 = load ptr, ptr %0, align 8
  %47 = getelementptr inbounds i8, ptr %46, i64 %switch.load61
  %48 = load ptr, ptr %47, align 8
  tail call void %48(ptr noundef nonnull %0, ptr noundef %10, ptr noundef nonnull %31, i32 noundef 0) #8
  br label %releaseILData.exit

releaseILData.exit:                               ; preds = %switch.lookup56, %switch.lookup53, %getILData.exit.thread, %16
  ret void
}